target datalayout = "e-m:e-p270:32:32-p271:32:32-p272:64:64-i64:64-i128:128-f80:128-n8:16:32:64-S128"
target triple = "x86_64-pc-linux-gnu"

%struct.JNINativeInterface_ = type { ptr, ptr, ptr, ptr, ptr, ptr, ptr, ptr, ptr, ptr, ptr, ptr, ptr, ptr, ptr, ptr, ptr, ptr, ptr, ptr, ptr, ptr, ptr, ptr, ptr, ptr, ptr, ptr, ptr, ptr, ptr, ptr, ptr, ptr, ptr, ptr, ptr, ptr, ptr, ptr, ptr, ptr, ptr, ptr, ptr, ptr, ptr, ptr, ptr, ptr, ptr, ptr, ptr, ptr, ptr, ptr, ptr, ptr, ptr, ptr, ptr, ptr, ptr, ptr, ptr, ptr, ptr, ptr, ptr, ptr, ptr, ptr, ptr, ptr, ptr, ptr, ptr, ptr, ptr, ptr, ptr, ptr, ptr, ptr, ptr, ptr, ptr, ptr, ptr, ptr, ptr, ptr, ptr, ptr, ptr, ptr, ptr, ptr, ptr, ptr, ptr, ptr, ptr, ptr, ptr, ptr, ptr, ptr, ptr, ptr, ptr, ptr, ptr, ptr, ptr, ptr, ptr, ptr, ptr, ptr, ptr, ptr, ptr, ptr, ptr, ptr, ptr, ptr, ptr, ptr, ptr, ptr, ptr, ptr, ptr, ptr, ptr, ptr, ptr, ptr, ptr, ptr, ptr, ptr, ptr, ptr, ptr, ptr, ptr, ptr, ptr, ptr, ptr, ptr, ptr, ptr, ptr, ptr, ptr, ptr, ptr, ptr, ptr, ptr, ptr, ptr, ptr, ptr, ptr, ptr, ptr, ptr, ptr, ptr, ptr, ptr, ptr, ptr, ptr, ptr, ptr, ptr, ptr, ptr, ptr, ptr, ptr, ptr, ptr, ptr, ptr, ptr, ptr, ptr, ptr, ptr, ptr, ptr, ptr, ptr, ptr, ptr, ptr, ptr, ptr, ptr, ptr, ptr, ptr, ptr, ptr, ptr, ptr, ptr, ptr, ptr, ptr, ptr, ptr, ptr, ptr, ptr, ptr, ptr, ptr, ptr, ptr, ptr, ptr, ptr, ptr, ptr, ptr, ptr, ptr }
%struct.CK_SALSA20_CHACHA20_POLY1305_PARAMS = type { ptr, i64, ptr, i64 }

@.str.24 = private unnamed_addr constant [3 x i8] c"[B\00", align 1
@.str.56 = private unnamed_addr constant [4 x i8] c"aad\00", align 1
@.str.60 = private unnamed_addr constant [6 x i8] c"nonce\00", align 1
@.str.62 = private unnamed_addr constant [64 x i8] c"sun/security/pkcs11/wrapper/CK_SALSA20_CHACHA20_POLY1305_PARAMS\00", align 1

; Function Attrs: nounwind uwtable
define hidden ptr @jSalsaChaChaPolyParamsToCKSalsaChaChaPolyParamPtr(ptr noundef %0, ptr noundef %1, ptr noundef %2) #0 {
  %4 = alloca ptr, align 8
  %5 = alloca ptr, align 8
  %6 = alloca ptr, align 8
  %7 = alloca ptr, align 8
  %8 = alloca ptr, align 8
  %9 = alloca ptr, align 8
  %10 = alloca ptr, align 8
  %11 = alloca ptr, align 8
  %12 = alloca ptr, align 8
  store ptr %0, ptr %5, align 8
  store ptr %1, ptr %6, align 8
  store ptr %2, ptr %7, align 8
  %13 = load ptr, ptr %7, align 8
  %14 = icmp ne ptr %13, null
  br i1 %14, label %15, label %17

15:                                               ; preds = %3
  %16 = load ptr, ptr %7, align 8
  store i64 0, ptr %16, align 8
  br label %17

17:                                               ; preds = %15, %3
  %18 = load ptr, ptr %5, align 8
  %19 = load ptr, ptr %18, align 8
  %20 = getelementptr inbounds %struct.JNINativeInterface_, ptr %19, i32 0, i32 6
  %21 = load ptr, ptr %20, align 8
  %22 = load ptr, ptr %5, align 8
  %23 = call ptr %21(ptr noundef %22, ptr noundef @.str.62)
  store ptr %23, ptr %9, align 8
  %24 = load ptr, ptr %9, align 8
  %25 = icmp eq ptr %24, null
  br i1 %25, label %26, label %27

26:                                               ; preds = %17
  store ptr null, ptr %4, align 8
  br label %127

27:                                               ; preds = %17
  %28 = load ptr, ptr %5, align 8
  %29 = load ptr, ptr %28, align 8
  %30 = getelementptr inbounds %struct.JNINativeInterface_, ptr %29, i32 0, i32 32
  %31 = load ptr, ptr %30, align 8
  %32 = load ptr, ptr %5, align 8
  %33 = load ptr, ptr %6, align 8
  %34 = load ptr, ptr %9, align 8
  %35 = call zeroext i8 %31(ptr noundef %32, ptr noundef %33, ptr noundef %34)
  %36 = icmp ne i8 %35, 0
  br i1 %36, label %38, label %37

37:                                               ; preds = %27
  store ptr null, ptr %4, align 8
  br label %127

38:                                               ; preds = %27
  %39 = load ptr, ptr %5, align 8
  %40 = load ptr, ptr %39, align 8
  %41 = getelementptr inbounds %struct.JNINativeInterface_, ptr %40, i32 0, i32 94
  %42 = load ptr, ptr %41, align 8
  %43 = load ptr, ptr %5, align 8
  %44 = load ptr, ptr %9, align 8
  %45 = call ptr %42(ptr noundef %43, ptr noundef %44, ptr noundef @.str.60, ptr noundef @.str.24)
  store ptr %45, ptr %10, align 8
  %46 = load ptr, ptr %10, align 8
  %47 = icmp eq ptr %46, null
  br i1 %47, label %48, label %49

48:                                               ; preds = %38
  store ptr null, ptr %4, align 8
  br label %127

49:                                               ; preds = %38
  %50 = load ptr, ptr %5, align 8
  %51 = load ptr, ptr %50, align 8
  %52 = getelementptr inbounds %struct.JNINativeInterface_, ptr %51, i32 0, i32 95
  %53 = load ptr, ptr %52, align 8
  %54 = load ptr, ptr %5, align 8
  %55 = load ptr, ptr %6, align 8
  %56 = load ptr, ptr %10, align 8
  %57 = call ptr %53(ptr noundef %54, ptr noundef %55, ptr noundef %56)
  store ptr %57, ptr %11, align 8
  %58 = load ptr, ptr %5, align 8
  %59 = load ptr, ptr %58, align 8
  %60 = getelementptr inbounds %struct.JNINativeInterface_, ptr %59, i32 0, i32 94
  %61 = load ptr, ptr %60, align 8
  %62 = load ptr, ptr %5, align 8
  %63 = load ptr, ptr %9, align 8
  %64 = call ptr %61(ptr noundef %62, ptr noundef %63, ptr noundef @.str.56, ptr noundef @.str.24)
  store ptr %64, ptr %10, align 8
  %65 = load ptr, ptr %10, align 8
  %66 = icmp eq ptr %65, null
  br i1 %66, label %67, label %68

67:                                               ; preds = %49
  store ptr null, ptr %4, align 8
  br label %127

68:                                               ; preds = %49
  %69 = load ptr, ptr %5, align 8
  %70 = load ptr, ptr %69, align 8
  %71 = getelementptr inbounds %struct.JNINativeInterface_, ptr %70, i32 0, i32 95
  %72 = load ptr, ptr %71, align 8
  %73 = load ptr, ptr %5, align 8
  %74 = load ptr, ptr %6, align 8
  %75 = load ptr, ptr %10, align 8
  %76 = call ptr %72(ptr noundef %73, ptr noundef %74, ptr noundef %75)
  store ptr %76, ptr %12, align 8
  %77 = call noalias ptr @calloc(i64 noundef 1, i64 noundef 32) #6
  store ptr %77, ptr %8, align 8
  %78 = load ptr, ptr %8, align 8
  %79 = icmp eq ptr %78, null
  br i1 %79, label %80, label %82

80:                                               ; preds = %68
  %81 = load ptr, ptr %5, align 8
  call void @p11ThrowOutOfMemoryError(ptr noundef %81, ptr noundef null)
  store ptr null, ptr %4, align 8
  br label %127

82:                                               ; preds = %68
  %83 = load ptr, ptr %5, align 8
  %84 = load ptr, ptr %11, align 8
  %85 = load ptr, ptr %8, align 8
  %86 = getelementptr inbounds %struct.CK_SALSA20_CHACHA20_POLY1305_PARAMS, ptr %85, i32 0, i32 0
  %87 = load ptr, ptr %8, align 8
  %88 = getelementptr inbounds %struct.CK_SALSA20_CHACHA20_POLY1305_PARAMS, ptr %87, i32 0, i32 1
  call void @jByteArrayToCKByteArray(ptr noundef %83, ptr noundef %84, ptr noundef %86, ptr noundef %88)
  %89 = load ptr, ptr %5, align 8
  %90 = load ptr, ptr %89, align 8
  %91 = getelementptr inbounds %struct.JNINativeInterface_, ptr %90, i32 0, i32 228
  %92 = load ptr, ptr %91, align 8
  %93 = load ptr, ptr %5, align 8
  %94 = call zeroext i8 %92(ptr noundef %93)
  %95 = icmp ne i8 %94, 0
  br i1 %95, label %96, label %97

96:                                               ; preds = %82
  br label %119

97:                                               ; preds = %82
  %98 = load ptr, ptr %5, align 8
  %99 = load ptr, ptr %12, align 8
  %100 = load ptr, ptr %8, align 8
  %101 = getelementptr inbounds %struct.CK_SALSA20_CHACHA20_POLY1305_PARAMS, ptr %100, i32 0, i32 2
  %102 = load ptr, ptr %8, align 8
  %103 = getelementptr inbounds %struct.CK_SALSA20_CHACHA20_POLY1305_PARAMS, ptr %102, i32 0, i32 3
  call void @jByteArrayToCKByteArray(ptr noundef %98, ptr noundef %99, ptr noundef %101, ptr noundef %103)
  %104 = load ptr, ptr %5, align 8
  %105 = load ptr, ptr %104, align 8
  %106 = getelementptr inbounds %struct.JNINativeInterface_, ptr %105, i32 0, i32 228
  %107 = load ptr, ptr %106, align 8
  %108 = load ptr, ptr %5, align 8
  %109 = call zeroext i8 %107(ptr noundef %108)
  %110 = icmp ne i8 %109, 0
  br i1 %110, label %111, label %112

111:                                              ; preds = %97
  br label %119

112:                                              ; preds = %97
  %113 = load ptr, ptr %7, align 8
  %114 = icmp ne ptr %113, null
  br i1 %114, label %115, label %117

115:                                              ; preds = %112
  %116 = load ptr, ptr %7, align 8
  store i64 32, ptr %116, align 8
  br label %117

117:                                              ; preds = %115, %112
  %118 = load ptr, ptr %8, align 8
  store ptr %118, ptr %4, align 8
  br label %127

119:                                              ; preds = %111, %96
  %120 = load ptr, ptr %8, align 8
  %121 = getelementptr inbounds %struct.CK_SALSA20_CHACHA20_POLY1305_PARAMS, ptr %120, i32 0, i32 0
  %122 = load ptr, ptr %121, align 8
  call void @free(ptr noundef %122) #7
  %123 = load ptr, ptr %8, align 8
  %124 = getelementptr inbounds %struct.CK_SALSA20_CHACHA20_POLY1305_PARAMS, ptr %123, i32 0, i32 2
  %125 = load ptr, ptr %124, align 8
  call void @free(ptr noundef %125) #7
  %126 = load ptr, ptr %8, align 8
  call void @free(ptr noundef %126) #7
  store ptr null, ptr %4, align 8
  br label %127

127:                                              ; preds = %119, %117, %80, %67, %48, %37, %26
  %128 = load ptr, ptr %4, align 8
  ret ptr %128
}