; Function Attrs: nounwind uwtable
define hidden noundef ptr @jSalsaChaChaPolyParamsToCKSalsaChaChaPolyParamPtr(ptr noundef %0, ptr noundef %1, ptr noundef writeonly %2) local_unnamed_addr #0 {
  %.not = icmp eq ptr %2, null
  br i1 %.not, label %5, label %4

4:                                                ; preds = %3
  store i64 0, ptr %2, align 8
  br label %5

5:                                                ; preds = %4, %3
  %6 = load ptr, ptr %0, align 8
  %7 = getelementptr inbounds i8, ptr %6, i64 48
  %8 = load ptr, ptr %7, align 8
  %9 = tail call ptr %8(ptr noundef nonnull %0, ptr noundef nonnull @.str.62) #8
  %10 = icmp eq ptr %9, null
  br i1 %10, label %59, label %11

11:                                               ; preds = %5
  %12 = load ptr, ptr %0, align 8
  %13 = getelementptr inbounds i8, ptr %12, i64 256
  %14 = load ptr, ptr %13, align 8
  %15 = tail call zeroext i8 %14(ptr noundef nonnull %0, ptr noundef %1, ptr noundef nonnull %9) #8
  %.not51 = icmp eq i8 %15, 0
  br i1 %.not51, label %59, label %16

16:                                               ; preds = %11
  %17 = load ptr, ptr %0, align 8
  %18 = getelementptr inbounds i8, ptr %17, i64 752
  %19 = load ptr, ptr %18, align 8
  %20 = tail call ptr %19(ptr noundef nonnull %0, ptr noundef nonnull %9, ptr noundef nonnull @.str.60, ptr noundef nonnull @.str.24) #8
  %21 = icmp eq ptr %20, null
  br i1 %21, label %59, label %22

22:                                               ; preds = %16
  %23 = load ptr, ptr %0, align 8
  %24 = getelementptr inbounds i8, ptr %23, i64 760
  %25 = load ptr, ptr %24, align 8
  %26 = tail call ptr %25(ptr noundef nonnull %0, ptr noundef %1, ptr noundef nonnull %20) #8
  %27 = load ptr, ptr %0, align 8
  %28 = getelementptr inbounds i8, ptr %27, i64 752
  %29 = load ptr, ptr %28, align 8
  %30 = tail call ptr %29(ptr noundef nonnull %0, ptr noundef nonnull %9, ptr noundef nonnull @.str.56, ptr noundef nonnull @.str.24) #8
  %31 = icmp eq ptr %30, null
  br i1 %31, label %59, label %32

32:                                               ; preds = %22
  %33 = load ptr, ptr %0, align 8
  %34 = getelementptr inbounds i8, ptr %33, i64 760
  %35 = load ptr, ptr %34, align 8
  %36 = tail call ptr %35(ptr noundef nonnull %0, ptr noundef %1, ptr noundef nonnull %30) #8
  %37 = tail call noalias dereferenceable_or_null(32) ptr @calloc(i64 noundef 1, i64 noundef 32) #9
  %38 = icmp eq ptr %37, null
  br i1 %38, label %39, label %40

39:                                               ; preds = %32
  tail call void @p11ThrowOutOfMemoryError(ptr noundef nonnull %0, ptr noundef null) #8
  br label %59

40:                                               ; preds = %32
  %41 = getelementptr inbounds i8, ptr %37, i64 8
  tail call void @jByteArrayToCKByteArray(ptr noundef nonnull %0, ptr noundef %26, ptr noundef nonnull %37, ptr noundef nonnull %41) #8
  %42 = load ptr, ptr %0, align 8
  %43 = getelementptr inbounds i8, ptr %42, i64 1824
  %44 = load ptr, ptr %43, align 8
  %45 = tail call zeroext i8 %44(ptr noundef nonnull %0) #8
  %.not52 = icmp eq i8 %45, 0
  br i1 %.not52, label %46, label %55

46:                                               ; preds = %40
  %47 = getelementptr inbounds i8, ptr %37, i64 16
  %48 = getelementptr inbounds i8, ptr %37, i64 24
  tail call void @jByteArrayToCKByteArray(ptr noundef nonnull %0, ptr noundef %36, ptr noundef nonnull %47, ptr noundef nonnull %48) #8
  %49 = load ptr, ptr %0, align 8
  %50 = getelementptr inbounds i8, ptr %49, i64 1824
  %51 = load ptr, ptr %50, align 8
  %52 = tail call zeroext i8 %51(ptr noundef nonnull %0) #8
  %.not53 = icmp eq i8 %52, 0
  br i1 %.not53, label %53, label %55

53:                                               ; preds = %46
  br i1 %.not, label %59, label %54

54:                                               ; preds = %53
  store i64 32, ptr %2, align 8
  br label %59

55:                                               ; preds = %46, %40
  %56 = load ptr, ptr %37, align 8
  tail call void @free(ptr noundef %56) #8
  %57 = getelementptr inbounds i8, ptr %37, i64 16
  %58 = load ptr, ptr %57, align 8
  tail call void @free(ptr noundef %58) #8
  tail call void @free(ptr noundef nonnull %37) #8
  br label %59

59:                                               ; preds = %53, %54, %22, %16, %11, %5, %55, %39
  %.0 = phi ptr [ null, %39 ], [ null, %55 ], [ null, %5 ], [ null, %11 ], [ null, %16 ], [ null, %22 ], [ %37, %54 ], [ %37, %53 ]
  ret ptr %.0
}